; Function Attrs: mustprogress nounwind uwtable
define hidden void @_ZN10ODDLParser13OpenDDLParserD2Ev(ptr noundef nonnull align 8 dereferenceable(88) %0) unnamed_addr #7 align 2 personality ptr @__gxx_personality_v0 {
  %2 = getelementptr inbounds nuw i8, ptr %0, i64 32
  invoke void @_ZNSt6vectorIcSaIcEE6resizeEm(ptr noundef nonnull align 8 dereferenceable(24) %2, i64 noundef 0)
          to label %.noexc unwind label %30

.noexc:                                           ; preds = %1
  %3 = getelementptr inbounds nuw i8, ptr %0, i64 80
  %4 = load ptr, ptr %3, align 8
  %5 = icmp eq ptr %4, null
  br i1 %5, label %7, label %6

6:                                                ; preds = %.noexc
  tail call void @_ZN10ODDLParser7ContextD1Ev(ptr noundef nonnull align 8 dereferenceable(8) %4) #29
  tail call void @_ZdlPvm(ptr noundef nonnull %4, i64 noundef 8) #30
  br label %7

7:                                                ; preds = %6, %.noexc
  store ptr null, ptr %3, align 8
  %8 = getelementptr inbounds nuw i8, ptr %0, i64 56
  %9 = load ptr, ptr %8, align 8
  %.not.i.i.i = icmp eq ptr %9, null
  br i1 %.not.i.i.i, label %_ZNSt6vectorIPN10ODDLParser7DDLNodeESaIS2_EED2Ev.exit, label %10

10:                                               ; preds = %7
  %11 = getelementptr inbounds nuw i8, ptr %0, i64 72
  %12 = load ptr, ptr %11, align 8
  %13 = ptrtoint ptr %12 to i64
  %14 = ptrtoint ptr %9 to i64
  %15 = sub i64 %13, %14
  tail call void @_ZdlPvm(ptr noundef nonnull %9, i64 noundef %15) #30
  br label %_ZNSt6vectorIPN10ODDLParser7DDLNodeESaIS2_EED2Ev.exit

_ZNSt6vectorIPN10ODDLParser7DDLNodeESaIS2_EED2Ev.exit: ; preds = %7, %10
  %16 = load ptr, ptr %2, align 8
  %.not.i.i.i1 = icmp eq ptr %16, null
  br i1 %.not.i.i.i1, label %_ZNSt6vectorIcSaIcEED2Ev.exit, label %17

17:                                               ; preds = %_ZNSt6vectorIPN10ODDLParser7DDLNodeESaIS2_EED2Ev.exit
  %18 = getelementptr inbounds nuw i8, ptr %0, i64 48
  %19 = load ptr, ptr %18, align 8
  %20 = ptrtoint ptr %19 to i64
  %21 = ptrtoint ptr %16 to i64
  %22 = sub i64 %20, %21
  tail call void @_ZdlPvm(ptr noundef nonnull %16, i64 noundef %22) #30
  br label %_ZNSt6vectorIcSaIcEED2Ev.exit

_ZNSt6vectorIcSaIcEED2Ev.exit:                    ; preds = %_ZNSt6vectorIPN10ODDLParser7DDLNodeESaIS2_EED2Ev.exit, %17
  %23 = getelementptr inbounds nuw i8, ptr %0, i64 16
  %24 = load ptr, ptr %23, align 8
  %.not.i = icmp eq ptr %24, null
  br i1 %.not.i, label %_ZNSt14_Function_baseD2Ev.exit, label %25

25:                                               ; preds = %_ZNSt6vectorIcSaIcEED2Ev.exit
  %26 = invoke noundef zeroext i1 %24(ptr noundef nonnull align 8 dereferenceable(32) %0, ptr noundef nonnull align 8 dereferenceable(32) %0, i32 noundef 3)
          to label %_ZNSt14_Function_baseD2Ev.exit unwind label %27

27:                                               ; preds = %25
  %28 = landingpad { ptr, i32 }
          catch ptr null
  %29 = extractvalue { ptr, i32 } %28, 0
  tail call void @__clang_call_terminate(ptr %29) #31
  unreachable

_ZNSt14_Function_baseD2Ev.exit:                   ; preds = %_ZNSt6vectorIcSaIcEED2Ev.exit, %25
  ret void

30:                                               ; preds = %1
  %31 = landingpad { ptr, i32 }
          catch ptr null
  %32 = extractvalue { ptr, i32 } %31, 0
  tail call void @__clang_call_terminate(ptr %32) #31
  unreachable
}